; Function Attrs: mustprogress nounwind uwtable
define hidden noundef ptr @_ZNK12GraphBuilder17should_not_inlineEP8ciMethod(ptr nocapture noundef nonnull readonly align 8 dereferenceable(97) %0, ptr noundef %1) local_unnamed_addr #0 align 2 {
  %3 = getelementptr inbounds i8, ptr %0, i64 8
  %4 = load ptr, ptr %3, align 8
  %5 = getelementptr inbounds i8, ptr %4, i64 24
  %6 = load ptr, ptr %5, align 8
  %7 = tail call noundef zeroext i1 @_ZN12DirectiveSet17should_not_inlineEP8ciMethod(ptr noundef nonnull align 8 dereferenceable(280) %6, ptr noundef %1) #19
  br i1 %7, label %14, label %8

8:                                                ; preds = %2
  %9 = getelementptr inbounds i8, ptr %1, i64 16
  %10 = load ptr, ptr %9, align 8
  %11 = getelementptr inbounds i8, ptr %10, i64 48
  %12 = load i32, ptr %11, align 4
  %13 = and i32 %12, 4096
  %.not = icmp eq i32 %13, 0
  %.str.30. = select i1 %.not, ptr null, ptr @.str.30
  br label %14

14:                                               ; preds = %8, %2
  %.0 = phi ptr [ @.str.29, %2 ], [ %.str.30., %8 ]
  ret ptr %.0
}